Certificate:
    Data:
        Version: 1 (0x0)
        Serial Number: 4112 (0x1010)
    Signature Algorithm: sha256WithRSAEncryption
        Issuer: C=GB, ST=England, O=Alice Ltd, CN=LITA intermediate CA
        Validity
            Not Before: Feb 10 00:29:02 2017 GMT
            Not After : Feb 20 00:29:02 2018 GMT
        Subject: C=GB, ST=England, L=asdfas, O=Alice Ltd, OU=sadf, CN=sadfa/emailAddress=sadf
        Subject Public Key Info:
            Public Key Algorithm: rsaEncryption
                Public-Key: (2048 bit)
                Modulus:
                    00:b2:81:86:42:5a:5f:6c:3e:bc:c5:68:1c:c2:d3:
                    cc:10:1e:ce:5a:39:ef:1e:84:79:fa:1d:64:9d:41:
                    2b:25:ba:aa:de:34:85:e8:c5:75:c5:d1:27:f9:bb:
                    82:26:46:9e:cb:e8:45:61:77:f3:8f:16:1c:7d:a2:
                    c0:4a:db:a4:09:d1:53:c6:57:98:88:8b:a7:c7:e9:
                    9a:fc:52:12:ad:96:35:82:81:bf:f6:08:ff:d7:ee:
                    b0:f9:c4:3e:95:8e:36:ab:d0:c3:fb:93:c3:0c:aa:
                    d0:25:1a:68:c1:16:0e:3c:da:33:d3:df:84:80:c0:
                    ca:73:e3:43:f9:31:d2:5a:47:2d:f9:dd:3b:fe:88:
                    51:ea:6f:62:71:2e:2f:a1:aa:bc:ca:0a:0b:ee:d2:
                    1f:48:2d:68:13:d6:9a:8d:b1:80:72:b7:0c:d6:da:
                    ab:3e:fb:dc:73:31:58:4d:4a:bf:6d:39:0e:77:a3:
                    79:52:73:a7:5a:59:53:54:16:40:c7:58:ad:cb:e6:
                    d9:3d:c3:eb:cf:03:70:d0:d6:f6:ea:31:fa:00:ac:
                    75:36:65:69:76:16:95:d9:ea:6b:21:91:f7:0f:3e:
                    0d:d6:34:1d:c2:3c:fb:d1:56:46:32:64:ea:c6:44:
                    88:bf:c2:40:24:3a:25:4e:35:9d:db:6a:6a:29:a2:
                    4b:c1
                Exponent: 65537 (0x10001)
    Signature Algorithm: sha256WithRSAEncryption
         7e:2b:ba:38:2f:94:64:e2:e8:5f:bc:8c:a3:1f:ca:27:a1:43:
         c7:62:e6:d2:ec:f0:5b:7e:e7:42:7b:d3:64:79:c7:96:3f:66:
         66:24:0e:06:f7:5b:8a:17:12:de:82:f9:78:eb:d3:77:29:af:
         08:49:e5:2f:6a:0b:68:b1:dd:4c:b4:38:fc:f1:71:96:3e:7c:
         31:8d:fe:8b:11:4b:36:ec:c7:4c:fb:b1:25:59:82:9d:7c:83:
         fc:56:2b:85:54:c3:72:26:6b:8d:a7:aa:e9:5a:a5:47:16:40:
         94:72:e2:45:96:84:3d:87:bb:40:7b:00:b7:83:c4:31:48:9c:
         80:0f:c2:e5:f7:00:43:c0:8a:c4:58:62:77:af:47:6f:1f:da:
         8d:39:35:7e:85:bd:25:3b:83:5e:c8:0e:44:32:a7:f3:c3:83:
         00:ab:a0:c0:6f:8c:48:23:64:55:8f:a2:80:2d:65:1b:89:15:
         d6:95:33:11:37:69:67:65:5f:f5:f5:27:69:cd:5b:0f:fd:75:
         90:be:ac:c6:ed:45:df:1f:9e:9f:cf:5e:e5:54:5a:27:b8:53:
         aa:7d:69:08:82:89:b5:2b:8a:68:dd:82:2c:09:35:c7:72:3d:
         04:c1:5e:b6:58:d7:84:00:0a:8e:21:26:26:21:9b:82:e3:19:
         e3:03:bb:7c:dd:22:52:e5:eb:f0:f5:a3:50:c7:55:6e:3d:eb:
         b0:28:b2:57:ce:b8:b7:ea:6a:8c:3e:6e:e8:37:32:d8:44:d7:
         b5:4b:50:b8:fe:90:53:31:da:67:b1:43:36:e9:1d:ca:99:19:
         73:b8:c0:26:4e:e6:21:cb:00:c2:74:dd:b2:0f:61:66:23:ba:
         59:38:f6:a8:c7:99:87:cc:01:c2:f2:2b:c3:02:f5:38:29:c9:
         53:a8:0b:63:f8:59:6b:61:fd:a4:bf:5f:18:cd:59:ca:c6:3b:
         16:aa:8d:19:6e:bf:d3:06:4c:bf:ad:18:61:33:cd:66:26:5e:
         8e:c2:34:25:35:9e:3e:0a:0a:13:dc:e6:e6:96:3f:5c:2c:1e:
         e0:e5:78:4b:ad:b3:ee:8c:b2:fb:f0:0c:f8:00:94:3e:49:21:
         64:b0:f2:4d:f9:64:5b:b7:04:ae:b0:15:61:2e:9d:14:31:8c:
         e0:eb:ed:90:e5:62:28:a4:66:af:f0:e0:de:b7:78:8f:98:79:
         85:91:a9:b9:3e:33:2b:e1:bc:36:3e:a7:e2:1c:78:3a:45:7d:
         6c:e2:67:2d:71:31:c3:be:88:d9:6d:76:02:b2:18:f2:67:93:
         ff:68:64:22:76:56:e3:2f:91:e2:38:77:2b:19:21:ec:1d:77:
         d0:aa:0c:3f:c4:7b:b3:69
-----BEGIN CERTIFICATE-----
MIIEPzCCAicCAhAQMA0GCSqGSIb3DQEBCwUAMFIxCzAJBgNVBAYTAkdCMRAwDgYD
VQQIDAdFbmdsYW5kMRIwEAYDVQQKDAlBbGljZSBMdGQxHTAbBgNVBAMMFExJVEEg
aW50ZXJtZWRpYXRlIENBMB4XDTE3MDIxMDAwMjkwMloXDTE4MDIyMDAwMjkwMlow
eDELMAkGA1UEBhMCR0IxEDAOBgNVBAgMB0VuZ2xhbmQxDzANBgNVBAcMBmFzZGZh
czESMBAGA1UECgwJQWxpY2UgTHRkMQ0wCwYDVQQLDARzYWRmMQ4wDAYDVQQDDAVz
YWRmYTETMBEGCSqGSIb3DQEJARYEc2FkZjCCASIwDQYJKoZIhvcNAQEBBQADggEP
ADCCAQoCggEBALKBhkJaX2w+vMVoHMLTzBAezlo57x6EefodZJ1BKyW6qt40hejF
dcXRJ/m7giZGnsvoRWF3848WHH2iwErbpAnRU8ZXmIiLp8fpmvxSEq2WNYKBv/YI
/9fusPnEPpWONqvQw/uTwwyq0CUaaMEWDjzaM9PfhIDAynPjQ/kx0lpHLfndO/6I
UepvYnEuL6GqvMoKC+7SH0gtaBPWmo2xgHK3DNbaqz773HMxWE1Kv205DnejeVJz
p1pZU1QWQMdYrcvm2T3D688DcNDW9uox+gCsdTZlaXYWldnqayGR9w8+DdY0HcI8
+9FWRjJk6sZEiL/CQCQ6JU41ndtqaimiS8ECAwEAATANBgkqhkiG9w0BAQsFAAOC
AgEAfiu6OC+UZOLoX7yMox/KJ6FDx2Lm0uzwW37nQnvTZHnHlj9mZiQOBvdbihcS
3oL5eOvTdymvCEnlL2oLaLHdTLQ4/PFxlj58MY3+ixFLNuzHTPuxJVmCnXyD/FYr
hVTDciZrjaeq6VqlRxZAlHLiRZaEPYe7QHsAt4PEMUicgA/C5fcAQ8CKxFhid69H
bx/ajTk1foW9JTuDXsgORDKn88ODAKugwG+MSCNkVY+igC1lG4kV1pUzETdpZ2Vf
9fUnac1bD/11kL6sxu1F3x+en89e5VRaJ7hTqn1pCIKJtSuKaN2CLAk1x3I9BMFe
tljXhAAKjiEmJiGbguMZ4wO7fN0iUuXr8PWjUMdVbj3rsCiyV864t+pqjD5u6Dcy
2ETXtUtQuP6QUzHaZ7FDNukdypkZc7jAJk7mIcsAwnTdsg9hZiO6WTj2qMeZh8wB
wvIrwwL1OCnJU6gLY/hZa2H9pL9fGM1ZysY7FqqNGW6/0wZMv60YYTPNZiZejsI0
JTWePgoKE9zm5pY/XCwe4OV4S62z7oyy+/AM+ACUPkkhZLDyTflkW7cErrAVYS6d
FDGM4OvtkOViKKRmr/Dg3rd4j5h5hZGpuT4zK+G8Nj6n4hx4OkV9bOJnLXExw76I
2W12ArIY8meT/2hkInZW4y+R4jh3Kxkh7B130KoMP8R7s2k=
-----END CERTIFICATE-----
